target datalayout = "e-m:e-p270:32:32-p271:32:32-p272:64:64-i64:64-i128:128-f80:128-n8:16:32:64-S128"
target triple = "x86_64-pc-linux-gnu"

%"struct.folly::NetworkSocket" = type { i32 }

; Function Attrs: mustprogress uwtable
define noundef i32 @_ZN5folly6netops23set_socket_non_blockingENS_13NetworkSocketE(i32 %0) #0 {
  %2 = alloca i32, align 4
  %3 = alloca %"struct.folly::NetworkSocket", align 4
  %4 = alloca i32, align 4
  %5 = alloca i32, align 4
  %6 = getelementptr inbounds nuw %"struct.folly::NetworkSocket", ptr %3, i32 0, i32 0
  store i32 %0, ptr %6, align 4
  call void @llvm.lifetime.start.p0(i64 4, ptr %4) #8
  %7 = getelementptr inbounds nuw %"struct.folly::NetworkSocket", ptr %3, i32 0, i32 0
  %8 = load i32, ptr %7, align 4, !tbaa !18
  %9 = call i32 (i32, i32, ...) @fcntl(i32 noundef %8, i32 noundef 3, i32 noundef 0)
  store i32 %9, ptr %4, align 4, !tbaa !15
  %10 = load i32, ptr %4, align 4, !tbaa !15
  %11 = icmp eq i32 %10, -1
  br i1 %11, label %12, label %13

12:                                               ; preds = %1
  store i32 -1, ptr %2, align 4
  store i32 1, ptr %5, align 4
  br label %19

13:                                               ; preds = %1
  %14 = getelementptr inbounds nuw %"struct.folly::NetworkSocket", ptr %3, i32 0, i32 0
  %15 = load i32, ptr %14, align 4, !tbaa !18
  %16 = load i32, ptr %4, align 4, !tbaa !15
  %17 = or i32 %16, 2048
  %18 = call i32 (i32, i32, ...) @fcntl(i32 noundef %15, i32 noundef 4, i32 noundef %17)
  store i32 %18, ptr %2, align 4
  store i32 1, ptr %5, align 4
  br label %19

19:                                               ; preds = %13, %12
  call void @llvm.lifetime.end.p0(i64 4, ptr %4) #8
  %20 = load i32, ptr %2, align 4
  ret i32 %20
}