; Function Attrs: mustprogress uwtable
define noundef i32 @_ZN5folly6netops23set_socket_non_blockingENS_13NetworkSocketE(i32 %0) local_unnamed_addr #0 {
  %2 = tail call i32 (i32, i32, ...) @fcntl(i32 noundef %0, i32 noundef 3, i32 noundef 0)
  %3 = icmp eq i32 %2, -1
  br i1 %3, label %7, label %4

4:                                                ; preds = %1
  %5 = or i32 %2, 2048
  %6 = tail call i32 (i32, i32, ...) @fcntl(i32 noundef %0, i32 noundef 4, i32 noundef %5)
  br label %7

7:                                                ; preds = %1, %4
  %.0 = phi i32 [ %6, %4 ], [ -1, %1 ]
  ret i32 %.0
}